Certificate:
    Data:
        Version: 3 (0x2)
        Serial Number: 1 (0x1)
    Signature Algorithm: sha256WithRSAEncryption
        Issuer: CN=devcert
        Validity
            Not Before: Sep  3 23:50:48 2022 GMT
            Not After : Dec  6 23:50:48 2024 GMT
        Subject: CN=joinpickup.dev
        Subject Public Key Info:
            Public Key Algorithm: rsaEncryption
                Public-Key: (2048 bit)
                Modulus:
                    00:ce:56:b2:77:c8:87:e6:71:d0:31:8f:8c:35:07:
                    6f:6f:c0:36:f0:52:cf:1c:89:d3:d6:e3:82:ca:ca:
                    28:23:df:14:12:24:40:fc:0e:b0:56:59:33:2d:87:
                    f0:5c:cd:d9:b5:62:83:b4:9f:13:05:12:c2:2c:37:
                    68:76:c3:8c:fb:42:1c:73:7b:49:89:89:8a:be:dc:
                    ff:7c:ec:f4:e9:8e:b0:83:f7:eb:49:c0:29:b5:cc:
                    ed:47:1a:58:81:0b:07:be:4c:50:86:1a:a8:8e:9f:
                    0d:e8:96:e6:6f:d8:02:41:45:62:ee:a6:3e:f6:46:
                    88:82:bf:34:0b:af:97:00:83:40:67:7d:a2:d5:44:
                    8d:7c:bb:c3:db:37:3e:2f:ed:f8:87:71:8f:7c:14:
                    19:85:d2:25:45:43:c3:35:a7:4f:b3:b2:42:89:ac:
                    c9:9e:16:e1:38:8b:16:42:00:63:88:0f:e0:ce:98:
                    fb:9c:54:4a:4e:8f:be:60:be:a1:1a:50:76:22:87:
                    43:97:2e:a0:f5:33:d1:34:65:d2:6e:a2:06:0e:57:
                    70:56:f1:1b:9e:37:5a:8b:08:d6:86:60:9b:18:32:
                    3a:00:68:15:55:e1:5e:d3:c2:1e:f1:55:50:8b:9c:
                    15:75:88:ab:53:47:a1:a3:25:7b:db:7f:96:ae:e4:
                    15:7d
                Exponent: 65537 (0x10001)
        X509v3 extensions:
            X509v3 Basic Constraints: critical
                CA:FALSE
            X509v3 Subject Key Identifier: 
                59:CB:40:E6:9F:01:F8:CE:A6:2B:B3:1E:49:48:5B:5B:ED:0A:51:B1
            X509v3 Authority Key Identifier: 
                keyid:7C:12:4B:51:E3:1F:D3:D5:4A:A7:7F:17:2D:D7:82:37:1C:44:12:67
                DirName:/CN=devcert
                serial:BF:BB:41:9F:B1:F8:F4:DE

            X509v3 Key Usage: critical
                Digital Signature, Key Encipherment
            X509v3 Extended Key Usage: 
                TLS Web Server Authentication
            X509v3 Subject Alternative Name: 
                DNS:joinpickup.dev, DNS:*.joinpickup.dev
    Signature Algorithm: sha256WithRSAEncryption
         3f:51:cd:d8:93:ae:e5:9c:8a:eb:6a:3f:93:96:e8:be:95:01:
         2c:45:25:d5:39:36:3f:be:f7:0a:da:cc:26:86:90:12:b0:1f:
         9a:d0:bf:a6:60:bd:72:4b:86:30:11:86:79:3c:a7:3c:4f:1f:
         1f:d8:6b:3e:f8:a7:58:25:9e:f4:a4:d4:36:67:b5:36:db:f5:
         98:87:00:a9:7d:cc:8a:1d:d9:c9:13:7d:42:fa:09:8a:2d:8b:
         58:27:31:b6:f5:e3:da:2b:68:bd:31:a7:9a:46:9c:95:9a:b7:
         1e:c9:7e:81:16:55:76:87:d3:b4:a2:43:63:b5:77:81:d3:86:
         7f:e0:c7:d9:35:95:0c:1a:29:d7:e0:77:73:95:65:ef:18:6e:
         b6:2d:8f:83:cd:26:2f:c2:00:5c:ea:83:a5:9f:4b:31:84:83:
         36:e4:21:06:b9:0b:19:55:48:74:2b:2f:55:25:3a:3e:88:b2:
         f5:e5:30:c1:17:58:74:3e:fa:f4:45:4e:8c:c1:63:1c:77:64:
         f5:5b:a9:cc:45:1d:9f:8a:54:2c:1b:b9:4c:a6:4f:05:5e:dc:
         cc:eb:56:9b:91:f6:e6:61:1a:9d:f0:04:13:d7:90:25:09:1b:
         ff:3a:2d:4f:9b:7b:11:d8:df:a3:d0:27:96:7e:5b:c8:46:74:
         76:a0:ee:98
-----BEGIN CERTIFICATE-----
MIIDbTCCAlWgAwIBAgIBATANBgkqhkiG9w0BAQsFADASMRAwDgYDVQQDDAdkZXZj
ZXJ0MB4XDTIyMDkwMzIzNTA0OFoXDTI0MTIwNjIzNTA0OFowGTEXMBUGA1UEAwwO
am9pbnBpY2t1cC5kZXYwggEiMA0GCSqGSIb3DQEBAQUAA4IBDwAwggEKAoIBAQDO
VrJ3yIfmcdAxj4w1B29vwDbwUs8cidPW44LKyigj3xQSJED8DrBWWTMth/Bczdm1
YoO0nxMFEsIsN2h2w4z7Qhxze0mJiYq+3P987PTpjrCD9+tJwCm1zO1HGliBCwe+
TFCGGqiOnw3oluZv2AJBRWLupj72RoiCvzQLr5cAg0BnfaLVRI18u8PbNz4v7fiH
cY98FBmF0iVFQ8M1p0+zskKJrMmeFuE4ixZCAGOID+DOmPucVEpOj75gvqEaUHYi
h0OXLqD1M9E0ZdJuogYOV3BW8RueN1qLCNaGYJsYMjoAaBVV4V7Twh7xVVCLnBV1
iKtTR6GjJXvbf5au5BV9AgMBAAGjgcYwgcMwDAYDVR0TAQH/BAIwADAdBgNVHQ4E
FgQUWctA5p8B+M6mK7MeSUhbW+0KUbEwQgYDVR0jBDswOYAUfBJLUeMf09VKp38X
LdeCNxxEEmehFqQUMBIxEDAOBgNVBAMMB2RldmNlcnSCCQC/u0Gfsfj03jAOBgNV
HQ8BAf8EBAMCBaAwEwYDVR0lBAwwCgYIKwYBBQUHAwEwKwYDVR0RBCQwIoIOam9p
bnBpY2t1cC5kZXaCECouam9pbnBpY2t1cC5kZXYwDQYJKoZIhvcNAQELBQADggEB
AD9RzdiTruWciutqP5OW6L6VASxFJdU5Nj++9wrazCaGkBKwH5rQv6ZgvXJLhjAR
hnk8pzxPHx/Yaz74p1glnvSk1DZntTbb9ZiHAKl9zIod2ckTfUL6CYoti1gnMbb1
49oraL0xp5pGnJWatx7JfoEWVXaH07SiQ2O1d4HThn/gx9k1lQwaKdfgd3OVZe8Y
brYtj4PNJi/CAFzqg6WfSzGEgzbkIQa5CxlVSHQrL1UlOj6IsvXlMMEXWHQ++vRF
TozBYxx3ZPVbqcxFHZ+KVCwbuUymTwVe3MzrVpuR9uZhGp3wBBPXkCUJG/86LU+b
exHY36PQJ5Z+W8hGdHag7pg=
-----END CERTIFICATE-----
